target datalayout = "e-m:e-p270:32:32-p271:32:32-p272:64:64-i64:64-i128:128-f80:128-n8:16:32:64-S128"
target triple = "x86_64-unknown-linux-gnu"

; Function Attrs: mustprogress nounwind uwtable
define hidden void @_ZN18OpenImageIO_v2_6_09IffOutput18compress_duplicateERPKhRPhi(ptr noundef nonnull align 8 dereferenceable(376) %this, ptr noundef nonnull align 8 dereferenceable(8) %in, ptr noundef nonnull align 8 dereferenceable(8) %out, i32 noundef %size) #4 align 2 {
entry:
  %this.addr = alloca ptr, align 8
  %in.addr = alloca ptr, align 8
  %out.addr = alloca ptr, align 8
  %size.addr = alloca i32, align 4
  %count = alloca i32, align 4
  %run = alloca i8, align 1
  %length = alloca i32, align 4
  store ptr %this, ptr %this.addr, align 8
  store ptr %in, ptr %in.addr, align 8
  store ptr %out, ptr %out.addr, align 8
  store i32 %size, ptr %size.addr, align 4
  store i32 1, ptr %count, align 4
  br label %for.cond

for.cond:                                         ; preds = %for.inc, %entry
  %0 = load i32, ptr %count, align 4
  %1 = load i32, ptr %size.addr, align 4
  %cmp = icmp slt i32 %0, %1
  br i1 %cmp, label %for.body, label %for.end

for.body:                                         ; preds = %for.cond
  %2 = load ptr, ptr %in.addr, align 8
  %3 = load ptr, ptr %2, align 8
  %4 = load i32, ptr %count, align 4
  %sub = sub nsw i32 %4, 1
  %idxprom = sext i32 %sub to i64
  %arrayidx = getelementptr inbounds i8, ptr %3, i64 %idxprom
  %5 = load i8, ptr %arrayidx, align 1
  %conv = zext i8 %5 to i32
  %6 = load ptr, ptr %in.addr, align 8
  %7 = load ptr, ptr %6, align 8
  %8 = load i32, ptr %count, align 4
  %idxprom2 = sext i32 %8 to i64
  %arrayidx3 = getelementptr inbounds i8, ptr %7, i64 %idxprom2
  %9 = load i8, ptr %arrayidx3, align 1
  %conv4 = zext i8 %9 to i32
  %cmp5 = icmp ne i32 %conv, %conv4
  br i1 %cmp5, label %if.then, label %if.end

if.then:                                          ; preds = %for.body
  br label %for.end

if.end:                                           ; preds = %for.body
  br label %for.inc

for.inc:                                          ; preds = %if.end
  %10 = load i32, ptr %count, align 4
  %inc = add nsw i32 %10, 1
  store i32 %inc, ptr %count, align 4
  br label %for.cond, !llvm.loop !24

for.end:                                          ; preds = %if.then, %for.cond
  %11 = load i32, ptr %count, align 4
  %cmp6 = icmp sgt i32 %11, 1
  %frombool = zext i1 %cmp6 to i8
  store i8 %frombool, ptr %run, align 1
  %12 = load i8, ptr %run, align 1
  %tobool = trunc i8 %12 to i1
  br i1 %tobool, label %cond.true, label %cond.false

cond.true:                                        ; preds = %for.end
  br label %cond.end

cond.false:                                       ; preds = %for.end
  %13 = load i32, ptr %count, align 4
  br label %cond.end

cond.end:                                         ; preds = %cond.false, %cond.true
  %cond = phi i32 [ 1, %cond.true ], [ %13, %cond.false ]
  store i32 %cond, ptr %length, align 4
  %14 = load i32, ptr %count, align 4
  %sub7 = sub nsw i32 %14, 1
  %and = and i32 %sub7, 127
  %15 = load i8, ptr %run, align 1
  %tobool8 = trunc i8 %15 to i1
  %conv9 = zext i1 %tobool8 to i32
  %shl = shl i32 %conv9, 7
  %or = or i32 %and, %shl
  %conv10 = trunc i32 %or to i8
  %16 = load ptr, ptr %out.addr, align 8
  %17 = load ptr, ptr %16, align 8
  %incdec.ptr = getelementptr inbounds i8, ptr %17, i32 1
  store ptr %incdec.ptr, ptr %16, align 8
  store i8 %conv10, ptr %17, align 1
  %18 = load ptr, ptr %in.addr, align 8
  %19 = load ptr, ptr %18, align 8
  %20 = load i8, ptr %19, align 1
  %21 = load ptr, ptr %out.addr, align 8
  %22 = load ptr, ptr %21, align 8
  store i8 %20, ptr %22, align 1
  %23 = load i32, ptr %length, align 4
  %24 = load ptr, ptr %out.addr, align 8
  %25 = load ptr, ptr %24, align 8
  %idx.ext = sext i32 %23 to i64
  %add.ptr = getelementptr inbounds i8, ptr %25, i64 %idx.ext
  store ptr %add.ptr, ptr %24, align 8
  %26 = load i32, ptr %count, align 4
  %27 = load ptr, ptr %in.addr, align 8
  %28 = load ptr, ptr %27, align 8
  %idx.ext11 = sext i32 %26 to i64
  %add.ptr12 = getelementptr inbounds i8, ptr %28, i64 %idx.ext11
  store ptr %add.ptr12, ptr %27, align 8
  ret void
}