; Function Attrs: mustprogress nofree norecurse nosync nounwind memory(readwrite, inaccessiblemem: none) uwtable
define hidden void @_ZN18OpenImageIO_v2_6_09IffOutput18compress_duplicateERPKhRPhi(ptr nocapture noundef nonnull readnone align 8 dereferenceable(376) %this, ptr nocapture noundef nonnull align 8 dereferenceable(8) %in, ptr nocapture noundef nonnull align 8 dereferenceable(8) %out, i32 noundef %size) local_unnamed_addr #8 align 2 {
entry:
  %cmp14 = icmp sgt i32 %size, 1
  br i1 %cmp14, label %for.body.lr.ph, label %for.end.thread

for.body.lr.ph:                                   ; preds = %entry
  %0 = load ptr, ptr %in, align 8
  %wide.trip.count = zext nneg i32 %size to i64
  br label %for.body

for.body:                                         ; preds = %for.body.lr.ph, %for.inc
  %indvars.iv = phi i64 [ 1, %for.body.lr.ph ], [ %indvars.iv.next, %for.inc ]
  %1 = getelementptr i8, ptr %0, i64 %indvars.iv
  %arrayidx = getelementptr i8, ptr %1, i64 -1
  %2 = load i8, ptr %arrayidx, align 1
  %3 = load i8, ptr %1, align 1
  %cmp5.not = icmp eq i8 %2, %3
  br i1 %cmp5.not, label %for.inc, label %for.end.split.loop.exit25

for.inc:                                          ; preds = %for.body
  %indvars.iv.next = add i64 %indvars.iv, 1
  %exitcond.not = icmp eq i64 %indvars.iv.next, %wide.trip.count
  br i1 %exitcond.not, label %for.end, label %for.body, !llvm.loop !22

for.end.split.loop.exit25:                        ; preds = %for.body
  %4 = trunc i64 %indvars.iv to i32
  br label %for.end

for.end:                                          ; preds = %for.inc, %for.end.split.loop.exit25
  %count.0.lcssa = phi i32 [ %4, %for.end.split.loop.exit25 ], [ %size, %for.inc ]
  %cmp6 = icmp ugt i32 %count.0.lcssa, 1
  %sub7 = add nuw i32 %count.0.lcssa, 127
  %and = and i32 %sub7, 127
  %spec.select = select i1 %cmp6, i32 128, i32 0
  %5 = or disjoint i32 %and, %spec.select
  %6 = trunc i32 %5 to i8
  %7 = zext nneg i32 %count.0.lcssa to i64
  br label %for.end.thread

for.end.thread:                                   ; preds = %for.end, %entry
  %count.0.lcssa23 = phi i64 [ 1, %entry ], [ %7, %for.end ]
  %or = phi i8 [ 0, %entry ], [ %6, %for.end ]
  %8 = load ptr, ptr %out, align 8
  %incdec.ptr = getelementptr inbounds i8, ptr %8, i64 1
  store ptr %incdec.ptr, ptr %out, align 8
  store i8 %or, ptr %8, align 1
  %9 = load ptr, ptr %in, align 8
  %10 = load i8, ptr %9, align 1
  %11 = load ptr, ptr %out, align 8
  store i8 %10, ptr %11, align 1
  %12 = load ptr, ptr %out, align 8
  %add.ptr = getelementptr inbounds i8, ptr %12, i64 1
  store ptr %add.ptr, ptr %out, align 8
  %13 = load ptr, ptr %in, align 8
  %add.ptr12 = getelementptr inbounds i8, ptr %13, i64 %count.0.lcssa23
  store ptr %add.ptr12, ptr %in, align 8
  ret void
}